target datalayout = "e-m:e-p270:32:32-p271:32:32-p272:64:64-i64:64-i128:128-f80:128-n8:16:32:64-S128"
target triple = "x86_64-unknown-linux-gnu"

%struct.anon.1 = type { ptr, ptr, ptr }
%struct.UString = type { ptr, i32, i32 }

@_ZL14gResourceTypes = internal global [16 x %struct.anon.1] zeroinitializer, align 16
@_ZL10k_type_int = internal global ptr @.str.131, align 8
@_ZL10k_type_bin = internal global ptr @.str.132, align 8
@.str.11 = private unnamed_addr constant [27 x i8] c"unknown resource type '%s'\00", align 1

; Function Attrs: mustprogress nounwind uwtable
define internal noundef signext i8 @_ZL9U_FAILURE10UErrorCode(i32 noundef %code) #0 {
entry:
  %code.addr = alloca i32, align 4
  store i32 %code, ptr %code.addr, align 4
  %0 = load i32, ptr %code.addr, align 4
  %cmp = icmp sgt i32 %0, 0
  %conv = zext i1 %cmp to i8
  ret i8 %conv
}

; Function Attrs: mustprogress uwtable
define internal noundef i32 @_ZL17parseResourceTypeP10ParseStateP10UErrorCode(ptr noundef %state, ptr noundef %status) #1 {
entry:
  %retval = alloca i32, align 4
  %state.addr = alloca ptr, align 8
  %status.addr = alloca ptr, align 8
  %tokenValue = alloca ptr, align 8
  %comment = alloca %struct.UString, align 8
  %result = alloca i32, align 4
  %line = alloca i32, align 4
  %tokenBuffer = alloca [1024 x i8], align 16
  store ptr %state, ptr %state.addr, align 8
  store ptr %status, ptr %status.addr, align 8
  store i32 0, ptr %result, align 4
  store i32 0, ptr %line, align 4
  call void @ustr_init(ptr noundef %comment)
  %0 = load ptr, ptr %state.addr, align 8
  %1 = load ptr, ptr %status.addr, align 8
  call void @_ZL6expectP10ParseState10ETokenTypePP7UStringS3_PjP10UErrorCode(ptr noundef %0, i32 noundef 0, ptr noundef %tokenValue, ptr noundef %comment, ptr noundef %line, ptr noundef %1)
  %2 = load ptr, ptr %status.addr, align 8
  %3 = load i32, ptr %2, align 4
  %call = call noundef signext i8 @_ZL9U_FAILURE10UErrorCode(i32 noundef %3)
  %tobool = icmp ne i8 %call, 0
  br i1 %tobool, label %if.then, label %if.end

if.then:                                          ; preds = %entry
  store i32 0, ptr %retval, align 4
  br label %return

if.end:                                           ; preds = %entry
  %4 = load ptr, ptr %status.addr, align 8
  store i32 0, ptr %4, align 4
  store i32 0, ptr %result, align 4
  br label %while.cond

while.cond:                                       ; preds = %if.end4, %if.end
  %5 = load i32, ptr %result, align 4
  %add = add nsw i32 %5, 1
  store i32 %add, ptr %result, align 4
  %cmp = icmp slt i32 %add, 15
  br i1 %cmp, label %while.body, label %while.end

while.body:                                       ; preds = %while.cond
  %6 = load ptr, ptr %tokenValue, align 8
  %fChars = getelementptr inbounds %struct.UString, ptr %6, i32 0, i32 0
  %7 = load ptr, ptr %fChars, align 8
  %8 = load i32, ptr %result, align 4
  %idxprom = zext i32 %8 to i64
  %arrayidx = getelementptr inbounds [16 x %struct.anon.1], ptr @_ZL14gResourceTypes, i64 0, i64 %idxprom
  %nameUChars = getelementptr inbounds %struct.anon.1, ptr %arrayidx, i32 0, i32 1
  %9 = load ptr, ptr %nameUChars, align 8
  %call1 = call i32 @u_strcmp_75(ptr noundef %7, ptr noundef %9)
  %cmp2 = icmp eq i32 %call1, 0
  br i1 %cmp2, label %if.then3, label %if.end4

if.then3:                                         ; preds = %while.body
  br label %while.end

if.end4:                                          ; preds = %while.body
  br label %while.cond, !llvm.loop !8

while.end:                                        ; preds = %if.then3, %while.cond
  %10 = load ptr, ptr %tokenValue, align 8
  %fChars5 = getelementptr inbounds %struct.UString, ptr %10, i32 0, i32 0
  %11 = load ptr, ptr %fChars5, align 8
  %12 = load ptr, ptr @_ZL10k_type_int, align 8
  %call6 = call i32 @u_strcmp_75(ptr noundef %11, ptr noundef %12)
  %cmp7 = icmp eq i32 %call6, 0
  br i1 %cmp7, label %if.then8, label %if.else

if.then8:                                         ; preds = %while.end
  store i32 5, ptr %result, align 4
  br label %if.end22

if.else:                                          ; preds = %while.end
  %13 = load ptr, ptr %tokenValue, align 8
  %fChars9 = getelementptr inbounds %struct.UString, ptr %13, i32 0, i32 0
  %14 = load ptr, ptr %fChars9, align 8
  %15 = load ptr, ptr @_ZL10k_type_bin, align 8
  %call10 = call i32 @u_strcmp_75(ptr noundef %14, ptr noundef %15)
  %cmp11 = icmp eq i32 %call10, 0
  br i1 %cmp11, label %if.then12, label %if.else13

if.then12:                                        ; preds = %if.else
  store i32 2, ptr %result, align 4
  br label %if.end21

if.else13:                                        ; preds = %if.else
  %16 = load i32, ptr %result, align 4
  %cmp14 = icmp eq i32 %16, 15
  br i1 %cmp14, label %if.then15, label %if.end20

if.then15:                                        ; preds = %if.else13
  %arraydecay = getelementptr inbounds [1024 x i8], ptr %tokenBuffer, i64 0, i64 0
  %17 = load ptr, ptr %tokenValue, align 8
  %fChars16 = getelementptr inbounds %struct.UString, ptr %17, i32 0, i32 0
  %18 = load ptr, ptr %fChars16, align 8
  %call17 = call ptr @u_austrncpy_75(ptr noundef %arraydecay, ptr noundef %18, i32 noundef 1024)
  %arrayidx18 = getelementptr inbounds [1024 x i8], ptr %tokenBuffer, i64 0, i64 1023
  store i8 0, ptr %arrayidx18, align 1
  %19 = load ptr, ptr %status.addr, align 8
  store i32 3, ptr %19, align 4
  %20 = load i32, ptr %line, align 4
  %arraydecay19 = getelementptr inbounds [1024 x i8], ptr %tokenBuffer, i64 0, i64 0
  call void (i32, ptr, ...) @error(i32 noundef %20, ptr noundef @.str.11, ptr noundef %arraydecay19)
  br label %if.end20

if.end20:                                         ; preds = %if.then15, %if.else13
  br label %if.end21

if.end21:                                         ; preds = %if.end20, %if.then12
  br label %if.end22

if.end22:                                         ; preds = %if.end21, %if.then8
  %21 = load i32, ptr %result, align 4
  store i32 %21, ptr %retval, align 4
  br label %return

return:                                           ; preds = %if.end22, %if.then
  %22 = load i32, ptr %retval, align 4
  ret i32 %22
}