; Function Attrs: mustprogress uwtable
define internal fastcc noundef i32 @_ZL17parseResourceTypeP10ParseStateP10UErrorCode(ptr noundef %state, ptr noundef %status) unnamed_addr #1 {
entry:
  %tokenValue = alloca ptr, align 8
  %comment = alloca %struct.UString, align 8
  %line = alloca i32, align 4
  %tokenBuffer = alloca [1024 x i8], align 16
  store i32 0, ptr %line, align 4
  call void @ustr_init(ptr noundef nonnull %comment)
  call fastcc void @_ZL6expectP10ParseState10ETokenTypePP7UStringS3_PjP10UErrorCode(ptr noundef %state, i32 noundef 0, ptr noundef nonnull %tokenValue, ptr noundef nonnull %comment, ptr noundef nonnull %line, ptr noundef %status)
  %0 = load i32, ptr %status, align 4
  %cmp.i = icmp slt i32 %0, 1
  br i1 %cmp.i, label %if.end, label %return

if.end:                                           ; preds = %entry
  store i32 0, ptr %status, align 4
  br label %while.cond

while.cond:                                       ; preds = %while.body, %if.end
  %indvars.iv = phi i64 [ %indvars.iv.next, %while.body ], [ 0, %if.end ]
  %exitcond.not = icmp eq i64 %indvars.iv, 14
  br i1 %exitcond.not, label %while.end, label %while.body

while.body:                                       ; preds = %while.cond
  %indvars.iv.next = add nuw nsw i64 %indvars.iv, 1
  %1 = load ptr, ptr %tokenValue, align 8
  %2 = load ptr, ptr %1, align 8
  %nameUChars = getelementptr inbounds [16 x %struct.anon.1], ptr @_ZL14gResourceTypes, i64 0, i64 %indvars.iv.next, i32 1
  %3 = load ptr, ptr %nameUChars, align 8
  %call1 = call i32 @u_strcmp_75(ptr noundef %2, ptr noundef %3)
  %cmp2 = icmp eq i32 %call1, 0
  br i1 %cmp2, label %while.end.split.loop.exit, label %while.cond, !llvm.loop !9

while.end.split.loop.exit:                        ; preds = %while.body
  %4 = trunc i64 %indvars.iv.next to i32
  br label %while.end

while.end:                                        ; preds = %while.cond, %while.end.split.loop.exit
  %add.lcssa = phi i32 [ %4, %while.end.split.loop.exit ], [ 15, %while.cond ]
  %5 = load ptr, ptr %tokenValue, align 8
  %6 = load ptr, ptr %5, align 8
  %call6 = call i32 @u_strcmp_75(ptr noundef %6, ptr noundef nonnull @.str.131)
  %cmp7 = icmp eq i32 %call6, 0
  br i1 %cmp7, label %return, label %if.else

if.else:                                          ; preds = %while.end
  %7 = load ptr, ptr %tokenValue, align 8
  %8 = load ptr, ptr %7, align 8
  %call10 = call i32 @u_strcmp_75(ptr noundef %8, ptr noundef nonnull @.str.132)
  %cmp11 = icmp eq i32 %call10, 0
  br i1 %cmp11, label %return, label %if.else13

if.else13:                                        ; preds = %if.else
  %cmp14 = icmp eq i32 %add.lcssa, 15
  br i1 %cmp14, label %if.then15, label %return

if.then15:                                        ; preds = %if.else13
  %9 = load ptr, ptr %tokenValue, align 8
  %10 = load ptr, ptr %9, align 8
  %call17 = call ptr @u_austrncpy_75(ptr noundef nonnull %tokenBuffer, ptr noundef %10, i32 noundef 1024)
  %arrayidx18 = getelementptr inbounds i8, ptr %tokenBuffer, i64 1023
  store i8 0, ptr %arrayidx18, align 1
  store i32 3, ptr %status, align 4
  %11 = load i32, ptr %line, align 4
  call void (i32, ptr, ...) @error(i32 noundef %11, ptr noundef nonnull @.str.11, ptr noundef nonnull %tokenBuffer)
  br label %return

return:                                           ; preds = %if.else13, %if.then15, %while.end, %if.else, %entry
  %retval.0 = phi i32 [ 0, %entry ], [ 15, %if.then15 ], [ %add.lcssa, %if.else13 ], [ 5, %while.end ], [ 2, %if.else ]
  ret i32 %retval.0
}